target datalayout = "e-m:e-p270:32:32-p271:32:32-p272:64:64-i64:64-i128:128-f80:128-n8:16:32:64-S128"
target triple = "x86_64-pc-linux-gnu"

%class.QString = type { ptr }
%class.RichDynamicFloat = type { %class.RichParameter, float, float }
%class.RichParameter = type { ptr, %class.QString, ptr, %class.QString, %class.QString, i8, i8, %class.QString }
%class.FloatValue = type <{ %class.Value, float, [4 x i8] }>
%class.Value = type { ptr }

; Function Attrs: mustprogress nounwind uwtable
define linkonce_odr void @_ZN5ValueD2Ev(ptr noundef nonnull align 8 dereferenceable(8) %0) unnamed_addr #0 comdat align 2 {
  %2 = alloca ptr, align 8
  store ptr %0, ptr %2, align 8
  ret void
}

; Function Attrs: mustprogress nounwind uwtable
define linkonce_odr void @_ZN10FloatValueD2Ev(ptr noundef nonnull align 8 dereferenceable(12) %0) unnamed_addr #0 comdat align 2 {
  %2 = alloca ptr, align 8
  store ptr %0, ptr %2, align 8
  %3 = load ptr, ptr %2, align 8
  call void @_ZN5ValueD2Ev(ptr noundef nonnull align 8 dereferenceable(8) %3) #5
  ret void
}

; Function Attrs: mustprogress uwtable
define void @_ZN16RichDynamicFloatC2ERK7QStringfffS2_S2_bS2_(ptr noundef nonnull align 8 dereferenceable(64) %0, ptr noundef nonnull align 8 dereferenceable(8) %1, float noundef %2, float noundef %3, float noundef %4, ptr noundef nonnull align 8 dereferenceable(8) %5, ptr noundef nonnull align 8 dereferenceable(8) %6, i1 noundef zeroext %7, ptr noundef nonnull align 8 dereferenceable(8) %8) unnamed_addr #1 align 2 personality ptr @__gxx_personality_v0 {
  %10 = alloca ptr, align 8
  %11 = alloca ptr, align 8
  %12 = alloca float, align 4
  %13 = alloca float, align 4
  %14 = alloca float, align 4
  %15 = alloca ptr, align 8
  %16 = alloca ptr, align 8
  %17 = alloca i8, align 1
  %18 = alloca ptr, align 8
  %19 = alloca %class.FloatValue, align 8
  %20 = alloca ptr, align 8
  %21 = alloca i32, align 4
  store ptr %0, ptr %10, align 8
  store ptr %1, ptr %11, align 8
  store float %2, ptr %12, align 4
  store float %3, ptr %13, align 4
  store float %4, ptr %14, align 4
  store ptr %5, ptr %15, align 8
  store ptr %6, ptr %16, align 8
  %22 = zext i1 %7 to i8
  store i8 %22, ptr %17, align 1
  store ptr %8, ptr %18, align 8
  %23 = load ptr, ptr %10, align 8
  %24 = load ptr, ptr %11, align 8
  %25 = load float, ptr %12, align 4
  call void @_ZN10FloatValueC1Ef(ptr noundef nonnull align 8 dereferenceable(12) %19, float noundef %25)
  %26 = load ptr, ptr %15, align 8
  %27 = load ptr, ptr %16, align 8
  %28 = load i8, ptr %17, align 1
  %29 = trunc i8 %28 to i1
  %30 = load ptr, ptr %18, align 8
  invoke void @_ZN13RichParameterC2ERK7QStringRK5ValueS2_S2_bS2_(ptr noundef nonnull align 8 dereferenceable(56) %23, ptr noundef nonnull align 8 dereferenceable(8) %24, ptr noundef nonnull align 8 dereferenceable(8) %19, ptr noundef nonnull align 8 dereferenceable(8) %26, ptr noundef nonnull align 8 dereferenceable(8) %27, i1 noundef zeroext %29, ptr noundef nonnull align 8 dereferenceable(8) %30)
          to label %31 unwind label %36

31:                                               ; preds = %9
  call void @_ZN10FloatValueD2Ev(ptr noundef nonnull align 8 dereferenceable(12) %19) #5
  store ptr getelementptr inbounds ({ [8 x ptr] }, ptr @_ZTV16RichDynamicFloat, i32 0, i32 0, i32 2), ptr %23, align 8
  %32 = getelementptr inbounds %class.RichDynamicFloat, ptr %23, i32 0, i32 1
  %33 = load float, ptr %13, align 4
  store float %33, ptr %32, align 8
  %34 = getelementptr inbounds %class.RichDynamicFloat, ptr %23, i32 0, i32 2
  %35 = load float, ptr %14, align 4
  store float %35, ptr %34, align 4
  ret void

36:                                               ; preds = %9
  %37 = landingpad { ptr, i32 }
          cleanup
  %38 = extractvalue { ptr, i32 } %37, 0
  store ptr %38, ptr %20, align 8
  %39 = extractvalue { ptr, i32 } %37, 1
  store i32 %39, ptr %21, align 4
  call void @_ZN10FloatValueD2Ev(ptr noundef nonnull align 8 dereferenceable(12) %19) #5
  br label %40

40:                                               ; preds = %36
  %41 = load ptr, ptr %20, align 8
  %42 = load i32, ptr %21, align 4
  %43 = insertvalue { ptr, i32 } poison, ptr %41, 0
  %44 = insertvalue { ptr, i32 } %43, i32 %42, 1
  resume { ptr, i32 } %44
}